; Function Attrs: mustprogress nofree norecurse nosync nounwind willreturn memory(readwrite, argmem: none, inaccessiblemem: none) uwtable
define dso_local void @pgstat_count_slru_page_hit(i32 noundef %0) local_unnamed_addr #3 {
  store i1 true, ptr @have_slrustats, align 1
  %2 = sext i32 %0 to i64
  %3 = getelementptr inbounds [8 x %struct.PgStat_SLRUStats], ptr @pending_SLRUStats, i64 0, i64 %2, i32 1
  %4 = load i64, ptr %3, align 8
  %5 = add i64 %4, 1
  store i64 %5, ptr %3, align 8
  ret void
}